(lp0
(S'u'
p1
I0
tp2
a(g1
I0
tp3
a(S'l'
p4
I-1
tp5
a(S'b'
p6
I-1
tp7
a(g4
I0
tp8
a(g4
I0
tp9
a(S'f'
p10
I0
tp11
a(g6
I0
tp12
a(g1
I-1
tp13
a(g6
I0
tp14
a(g6
I0
tp15
a(g4
I0
tp16
a(S'd'
p17
I-1
tp18
a(g10
I0
tp19
a(g4
I0
tp20
a(g4
I0
tp21
a(g6
I0
tp22
a(g6
I0
tp23
a(g1
I-1
tp24
a(g4
I0
tp25
a(g4
I0
tp26
a(g17
I0
tp27
a(g4
I0
tp28
a(g4
I0
tp29
a(g10
I0
tp30
a(g10
I0
tp31
a(g1
I0
tp32
a(g1
I0
tp33
a(S'r'
p34
I0
tp35
a(g34
I0
tp36
a(g17
I0
tp37
a.