(lp0
(S'u'
p1
I0
tp2
a(S'f'
p3
I-1
tp4
a(S'd'
p5
I0
tp6
a(g5
I0
tp7
a(g3
I0
tp8
a(g3
I0
tp9
a(g5
I0
tp10
a(S'r'
p11
I0
tp12
a(g11
I0
tp13
a(S'l'
p14
I0
tp15
a(g3
I0
tp16
a(g3
I0
tp17
a(S'b'
p18
I0
tp19
a(g1
I0
tp20
a(g1
I0
tp21
a(g3
I0
tp22
a(g14
I-1
tp23
a(g3
I0
tp24
a(g3
I0
tp25
a(g1
I-1
tp26
a(g14
I0
tp27
a(g14
I0
tp28
a(g3
I0
tp29
a(g3
I0
tp30
a(g1
I-1
tp31
a(g11
I0
tp32
a(g11
I0
tp33
a(g5
I-1
tp34
a(g11
I0
tp35
a(g11
I0
tp36
a(g5
I0
tp37
a(g18
I0
tp38
a(g18
I0
tp39
a.