(lp0
(S'u'
p1
I0
tp2
a(g1
I0
tp3
a(S'r'
p4
I-1
tp5
a(S'l'
p6
I-1
tp7
a(S'd'
p8
I-1
tp9
a(g4
I0
tp10
a(g4
I0
tp11
a(S'b'
p12
I-1
tp13
a(g1
I0
tp14
a(g1
I0
tp15
a(g4
I0
tp16
a(g6
I0
tp17
a(S'f'
p18
I-1
tp19
a(g1
I-1
tp20
a(g12
I-1
tp21
a(g4
I0
tp22
a(g4
I0
tp23
a(g1
I0
tp24
a(g1
I0
tp25
a(g18
I0
tp26
a(g18
I0
tp27
a(g4
I0
tp28
a(g4
I0
tp29
a(g6
I0
tp30
a(g6
I0
tp31
a(g8
I0
tp32
a(g12
I0
tp33
a(g12
I0
tp34
a(g8
I-1
tp35
a(g6
I0
tp36
a(g6
I0
tp37
a(g8
I0
tp38
a(g8
I0
tp39
a.