(lp0
(S'd'
p1
I-1
tp2
a(S'r'
p3
I-1
tp4
a(S'l'
p5
I-1
tp6
a(S'u'
p7
I0
tp8
a(S'b'
p9
I0
tp10
a(g5
I0
tp11
a(g5
I0
tp12
a(g7
I-1
tp13
a(g9
I-1
tp14
a(g3
I-1
tp15
a(g1
I0
tp16
a(g1
I0
tp17
a(g9
I0
tp18
a(g7
I0
tp19
a(S'f'
p20
I0
tp21
a(g20
I0
tp22
a(g3
I0
tp23
a(g3
I0
tp24
a(g9
I0
tp25
a(g9
I0
tp26
a(g5
I0
tp27
a(g5
I0
tp28
a(g9
I0
tp29
a(g9
I0
tp30
a(g7
I-1
tp31
a(g9
I0
tp32
a(g9
I0
tp33
a(g5
I0
tp34
a(g5
I0
tp35
a(g7
I0
tp36
a(g7
I0
tp37
a.