(lp0
(S'f'
p1
I-1
tp2
a(S'u'
p3
I-1
tp4
a(S'r'
p5
I0
tp6
a(g1
I-1
tp7
a(S'l'
p8
I-1
tp9
a(S'd'
p10
I-1
tp11
a(S'b'
p12
I0
tp13
a(g5
I-1
tp14
a(g10
I0
tp15
a(g10
I0
tp16
a(g5
I-1
tp17
a(g12
I0
tp18
a(g3
I-1
tp19
a(g1
I0
tp20
a(g1
I0
tp21
a(g12
I0
tp22
a(g12
I0
tp23
a(g8
I0
tp24
a(g8
I0
tp25
a(g3
I-1
tp26
a(g10
I0
tp27
a(g10
I0
tp28
a(g12
I0
tp29
a(g12
I0
tp30
a(g8
I0
tp31
a(g8
I0
tp32
a(g12
I0
tp33
a(g12
I0
tp34
a.